target datalayout = "e-m:e-p270:32:32-p271:32:32-p272:64:64-i64:64-i128:128-f80:128-n8:16:32:64-S128"
target triple = "x86_64-pc-linux-gnu"

%struct._object = type { %union.anon, ptr }
%union.anon = type { i64 }
%struct.PyVarObject = type { %struct._object, i64 }
%struct._typeobject = type { %struct.PyVarObject, ptr, i64, i64, ptr, i64, ptr, ptr, ptr, ptr, ptr, ptr, ptr, ptr, ptr, ptr, ptr, ptr, ptr, i64, ptr, ptr, ptr, ptr, i64, ptr, ptr, ptr, ptr, ptr, ptr, ptr, ptr, ptr, i64, ptr, ptr, ptr, ptr, ptr, ptr, ptr, ptr, ptr, ptr, ptr, i32, ptr, ptr, i8, i16 }
%struct.anon = type { i32, i32 }
%struct.dequeobject = type { %struct.PyVarObject, ptr, ptr, i64, i64, i64, i64, i64, [16 x ptr], ptr }

; Function Attrs: alwaysinline nounwind uwtable
define internal i32 @_Py_IsImmortal(ptr noundef %0) #4 {
  %2 = alloca ptr, align 8
  store ptr %0, ptr %2, align 8, !tbaa !4
  %3 = load ptr, ptr %2, align 8, !tbaa !4
  %4 = getelementptr inbounds nuw %struct._object, ptr %3, i32 0, i32 0
  %5 = getelementptr inbounds nuw %struct.anon, ptr %4, i32 0, i32 0
  %6 = load i32, ptr %5, align 8, !tbaa !39
  %7 = icmp slt i32 %6, 0
  %8 = zext i1 %7 to i32
  ret i32 %8
}

; Function Attrs: alwaysinline nounwind uwtable
define internal void @Py_DECREF(ptr noundef %0) #4 {
  %2 = alloca ptr, align 8
  store ptr %0, ptr %2, align 8, !tbaa !4
  %3 = load ptr, ptr %2, align 8, !tbaa !4
  %4 = call i32 @_Py_IsImmortal(ptr noundef %3)
  %5 = icmp ne i32 %4, 0
  br i1 %5, label %6, label %7

6:                                                ; preds = %1
  br label %16

7:                                                ; preds = %1
  %8 = load ptr, ptr %2, align 8, !tbaa !4
  %9 = getelementptr inbounds nuw %struct._object, ptr %8, i32 0, i32 0
  %10 = getelementptr inbounds nuw %struct.anon, ptr %9, i32 0, i32 0
  %11 = load i32, ptr %10, align 8, !tbaa !39
  %12 = add i32 %11, -1
  store i32 %12, ptr %10, align 8, !tbaa !39
  %13 = icmp eq i32 %12, 0
  br i1 %13, label %14, label %16

14:                                               ; preds = %7
  %15 = load ptr, ptr %2, align 8, !tbaa !4
  call void @_Py_Dealloc(ptr noundef %15)
  br label %16

16:                                               ; preds = %6, %14, %7
  ret void
}

; Function Attrs: inlinehint nounwind uwtable
define internal void @freeblock(ptr noundef %0, ptr noundef %1) #3 {
  %3 = alloca ptr, align 8
  %4 = alloca ptr, align 8
  store ptr %0, ptr %3, align 8, !tbaa !43
  store ptr %1, ptr %4, align 8, !tbaa !51
  %5 = load ptr, ptr %3, align 8, !tbaa !43
  %6 = getelementptr inbounds nuw %struct.dequeobject, ptr %5, i32 0, i32 7
  %7 = load i64, ptr %6, align 8, !tbaa !50
  %8 = icmp slt i64 %7, 16
  br i1 %8, label %9, label %21

9:                                                ; preds = %2
  %10 = load ptr, ptr %4, align 8, !tbaa !51
  %11 = load ptr, ptr %3, align 8, !tbaa !43
  %12 = getelementptr inbounds nuw %struct.dequeobject, ptr %11, i32 0, i32 8
  %13 = load ptr, ptr %3, align 8, !tbaa !43
  %14 = getelementptr inbounds nuw %struct.dequeobject, ptr %13, i32 0, i32 7
  %15 = load i64, ptr %14, align 8, !tbaa !50
  %16 = getelementptr [16 x ptr], ptr %12, i64 0, i64 %15
  store ptr %10, ptr %16, align 8, !tbaa !51
  %17 = load ptr, ptr %3, align 8, !tbaa !43
  %18 = getelementptr inbounds nuw %struct.dequeobject, ptr %17, i32 0, i32 7
  %19 = load i64, ptr %18, align 8, !tbaa !50
  %20 = add i64 %19, 1
  store i64 %20, ptr %18, align 8, !tbaa !50
  br label %23

21:                                               ; preds = %2
  %22 = load ptr, ptr %4, align 8, !tbaa !51
  call void @PyMem_Free(ptr noundef %22)
  br label %23

23:                                               ; preds = %21, %9
  ret void
}

; Function Attrs: inlinehint nounwind uwtable
define internal ptr @_Py_TYPE(ptr noundef %0) #3 {
  %2 = alloca ptr, align 8
  store ptr %0, ptr %2, align 8, !tbaa !4
  %3 = load ptr, ptr %2, align 8, !tbaa !4
  %4 = getelementptr inbounds nuw %struct._object, ptr %3, i32 0, i32 1
  %5 = load ptr, ptr %4, align 8, !tbaa !26
  ret ptr %5
}

; Function Attrs: nounwind uwtable
define internal void @deque_dealloc(ptr noundef %0) #0 {
  %2 = alloca ptr, align 8
  %3 = alloca ptr, align 8
  %4 = alloca i64, align 8
  store ptr %0, ptr %2, align 8, !tbaa !43
  call void @llvm.lifetime.start.p0(i64 8, ptr %3) #7
  %5 = load ptr, ptr %2, align 8, !tbaa !43
  %6 = call ptr @_Py_TYPE(ptr noundef %5)
  store ptr %6, ptr %3, align 8, !tbaa !21
  call void @llvm.lifetime.start.p0(i64 8, ptr %4) #7
  %7 = load ptr, ptr %2, align 8, !tbaa !43
  call void @PyObject_GC_UnTrack(ptr noundef %7)
  %8 = load ptr, ptr %2, align 8, !tbaa !43
  %9 = getelementptr inbounds nuw %struct.dequeobject, ptr %8, i32 0, i32 9
  %10 = load ptr, ptr %9, align 8, !tbaa !45
  %11 = icmp ne ptr %10, null
  br i1 %11, label %12, label %14

12:                                               ; preds = %1
  %13 = load ptr, ptr %2, align 8, !tbaa !43
  call void @PyObject_ClearWeakRefs(ptr noundef %13)
  br label %14

14:                                               ; preds = %12, %1
  %15 = load ptr, ptr %2, align 8, !tbaa !43
  %16 = getelementptr inbounds nuw %struct.dequeobject, ptr %15, i32 0, i32 1
  %17 = load ptr, ptr %16, align 8, !tbaa !48
  %18 = icmp ne ptr %17, null
  br i1 %18, label %19, label %26

19:                                               ; preds = %14
  %20 = load ptr, ptr %2, align 8, !tbaa !43
  %21 = call i32 @deque_clear(ptr noundef %20)
  %22 = load ptr, ptr %2, align 8, !tbaa !43
  %23 = load ptr, ptr %2, align 8, !tbaa !43
  %24 = getelementptr inbounds nuw %struct.dequeobject, ptr %23, i32 0, i32 1
  %25 = load ptr, ptr %24, align 8, !tbaa !48
  call void @freeblock(ptr noundef %22, ptr noundef %25)
  br label %26

26:                                               ; preds = %19, %14
  %27 = load ptr, ptr %2, align 8, !tbaa !43
  %28 = getelementptr inbounds nuw %struct.dequeobject, ptr %27, i32 0, i32 1
  store ptr null, ptr %28, align 8, !tbaa !48
  %29 = load ptr, ptr %2, align 8, !tbaa !43
  %30 = getelementptr inbounds nuw %struct.dequeobject, ptr %29, i32 0, i32 2
  store ptr null, ptr %30, align 8, !tbaa !49
  store i64 0, ptr %4, align 8, !tbaa !24
  br label %31

31:                                               ; preds = %43, %26
  %32 = load i64, ptr %4, align 8, !tbaa !24
  %33 = load ptr, ptr %2, align 8, !tbaa !43
  %34 = getelementptr inbounds nuw %struct.dequeobject, ptr %33, i32 0, i32 7
  %35 = load i64, ptr %34, align 8, !tbaa !50
  %36 = icmp slt i64 %32, %35
  br i1 %36, label %37, label %46

37:                                               ; preds = %31
  %38 = load ptr, ptr %2, align 8, !tbaa !43
  %39 = getelementptr inbounds nuw %struct.dequeobject, ptr %38, i32 0, i32 8
  %40 = load i64, ptr %4, align 8, !tbaa !24
  %41 = getelementptr [16 x ptr], ptr %39, i64 0, i64 %40
  %42 = load ptr, ptr %41, align 8, !tbaa !51
  call void @PyMem_Free(ptr noundef %42)
  br label %43

43:                                               ; preds = %37
  %44 = load i64, ptr %4, align 8, !tbaa !24
  %45 = add i64 %44, 1
  store i64 %45, ptr %4, align 8, !tbaa !24
  br label %31, !llvm.loop !52

46:                                               ; preds = %31
  %47 = load ptr, ptr %3, align 8, !tbaa !21
  %48 = getelementptr inbounds nuw %struct._typeobject, ptr %47, i32 0, i32 38
  %49 = load ptr, ptr %48, align 8, !tbaa !54
  %50 = load ptr, ptr %2, align 8, !tbaa !43
  call void %49(ptr noundef %50)
  %51 = load ptr, ptr %3, align 8, !tbaa !21
  call void @Py_DECREF(ptr noundef %51)
  call void @llvm.lifetime.end.p0(i64 8, ptr %4) #7
  call void @llvm.lifetime.end.p0(i64 8, ptr %3) #7
  ret void
}