; Function Attrs: nounwind uwtable
define internal void @deque_dealloc(ptr noundef %0) #0 {
  %2 = getelementptr i8, ptr %0, i64 8
  %.val = load ptr, ptr %2, align 8, !tbaa !22
  tail call void @PyObject_GC_UnTrack(ptr noundef %0) #9
  %3 = getelementptr inbounds nuw i8, ptr %0, i64 208
  %4 = load ptr, ptr %3, align 8, !tbaa !36
  %.not = icmp eq ptr %4, null
  br i1 %.not, label %6, label %5

5:                                                ; preds = %1
  tail call void @PyObject_ClearWeakRefs(ptr noundef nonnull %0) #9
  br label %6

6:                                                ; preds = %5, %1
  %7 = getelementptr inbounds nuw i8, ptr %0, i64 24
  %8 = load ptr, ptr %7, align 8, !tbaa !39
  %.not17 = icmp eq ptr %8, null
  br i1 %.not17, label %freeblock.exit, label %9

9:                                                ; preds = %6
  %10 = tail call i32 @deque_clear(ptr noundef nonnull %0)
  %11 = load ptr, ptr %7, align 8, !tbaa !39
  %12 = getelementptr inbounds nuw i8, ptr %0, i64 72
  %13 = load i64, ptr %12, align 8, !tbaa !40
  %14 = icmp slt i64 %13, 16
  br i1 %14, label %15, label %19

15:                                               ; preds = %9
  %16 = getelementptr inbounds nuw i8, ptr %0, i64 80
  %17 = getelementptr [16 x ptr], ptr %16, i64 0, i64 %13
  store ptr %11, ptr %17, align 8, !tbaa !41
  %18 = add nsw i64 %13, 1
  store i64 %18, ptr %12, align 8, !tbaa !40
  br label %freeblock.exit

19:                                               ; preds = %9
  tail call void @PyMem_Free(ptr noundef %11) #9
  br label %freeblock.exit

freeblock.exit:                                   ; preds = %19, %15, %6
  %20 = getelementptr inbounds nuw i8, ptr %0, i64 72
  tail call void @llvm.memset.p0.i64(ptr noundef nonnull align 8 dereferenceable(16) %7, i8 0, i64 16, i1 false)
  %21 = load i64, ptr %20, align 8, !tbaa !40
  %22 = icmp sgt i64 %21, 0
  br i1 %22, label %.lr.ph, label %._crit_edge

.lr.ph:                                           ; preds = %freeblock.exit
  %23 = getelementptr inbounds nuw i8, ptr %0, i64 80
  br label %24

24:                                               ; preds = %.lr.ph, %24
  %.018 = phi i64 [ 0, %.lr.ph ], [ %27, %24 ]
  %25 = getelementptr [16 x ptr], ptr %23, i64 0, i64 %.018
  %26 = load ptr, ptr %25, align 8, !tbaa !41
  tail call void @PyMem_Free(ptr noundef %26) #9
  %27 = add nuw nsw i64 %.018, 1
  %28 = load i64, ptr %20, align 8, !tbaa !40
  %29 = icmp slt i64 %27, %28
  br i1 %29, label %24, label %._crit_edge, !llvm.loop !42

._crit_edge:                                      ; preds = %24, %freeblock.exit
  %30 = getelementptr inbounds nuw i8, ptr %.val, i64 320
  %31 = load ptr, ptr %30, align 8, !tbaa !44
  tail call void %31(ptr noundef nonnull %0) #9
  %32 = load i32, ptr %.val, align 8, !tbaa !20
  %.not.i = icmp sgt i32 %32, -1
  br i1 %.not.i, label %33, label %Py_DECREF.exit

33:                                               ; preds = %._crit_edge
  %34 = add nsw i32 %32, -1
  store i32 %34, ptr %.val, align 8, !tbaa !20
  %35 = icmp eq i32 %34, 0
  br i1 %35, label %36, label %Py_DECREF.exit

36:                                               ; preds = %33
  tail call void @_Py_Dealloc(ptr noundef nonnull %.val) #9
  br label %Py_DECREF.exit

Py_DECREF.exit:                                   ; preds = %._crit_edge, %33, %36
  ret void
}